-----BEGIN RSA PRIVATE KEY-----
Proc-Type: 4,ENCRYPTED
DEK-Info: AES-128-CBC,6BC009B6ED2D5AF57F2F105CED2BDDB5

F57HbQu6rXHHaoJtKoGdSCggh/I5+ejyi8FLzoasxwnriI/hHBwA6KV5TnKqPrAu
H2DH0WK2p6EP4CEiEznOBaPeZOzJw8HcdNbn/STj8V3VAXoGREQNycn0ZkXAo6Ik
mCmegAon/ceIvtwmUb2PXWuJkHUsXbeKyimOIBPfor2G3gw8DJH1QZsVzVo9dD9W
WlGMZALEyiIWuMhswhQA16GvH7QqQjX8yDNolQMUcAurqqQi4NMJW7LQ+2tt9wDl
FHFYyqH1kBhwTFla9grWoAzKRWfzaQDoBicgFIOv5KAP4PFvPRcZsQ/4itkacU+t
+xcwOafLekstitabvvnqB4CS1S6QM+SsPlHIqWmUm63/4PO6o5Ct2+65Mt9xhFzQ
rRHisFKkjoC/ysbuvjbcrTo5oM5wHOZviO11xp1hmuLawJtTWUQndXt2wB86CBwA
Ci7uuHZ/kBQsAKTUxfcN2gPJmamnKt8fQnWqVgCxwuVmwnJmA7O22gXTygUISXrM
iDqzerjZ1YwrzrFQ3DR11ZZ7GXrA9nNlvEcuh17qkzFKOmv5oAWunkNNEm7gZLx2
oeb9o1UGzy4bHHlQMrD5eTL4YeJYLJbNM8d79oaO3I+1J1GXPbMyrBWZ6SHmYl+v
LsAl2PH2cPztJVdnaOTqh6fkj2uRK2OEgb/4goOHf06JNxwOJIJLEJLv0MAn+XPN
6V06Ri8vRoqZGvKr66mVKhN/R5K21F9NlKU5E9yLV8/sYdjveMrjeboc8HvQpt97
dM9gu2nRVMRcgfJjRkCe91wLbKLPazUy0jOrFpgGmffFbzS8ltXz2umf1S+KzuUZ
l1lLwzJA+I2hSrvwpQvlSyhxF8JgzV69UAchrVZ+86a/P/phiL0mQT66ZX+5RPRl
7Gb3riJWSdD0nI/MNbOn0v5k40WcUG4c/y93/bX49ZTUQvY/SdudN93+5D2cgZRR
BVwJmXyihy4/Uz+7s/UruQXwtcwWtNyHGh/sPyg9GoiRXS4cb7f5xeJEfRZQ4R0G
rtfF0Va6Ujbfu7yXaq3p8OylBjyZYpwtVdYdDDjlX9JjHyWAP3w0TOXiFjzRs7sz
xKEoVLrTNTM7SZ4ZKdnRhfUfujIwWsN/mlHeG5LOSmVJBw5GlDuEDzIs0gMmWyUA
WEm1bJxrHXVqazlxJFK+YRCOUfRmBK3b7a5R7HamZeK4KGLNfvnx+jiih6R599nQ
4Mjm49rw8sLb6H8vve9UH0BqPzKZLm6W1jPVD5rppXRiyNrZIkLs73cBAdOpUZO7
HZcDJPghNyMjjUCMZW0nmXuGjIeTuzioDYKNlo39BogQwTET/1kRwKExRbVQvhht
q58G8KhLAn+SeACXSoSWSet3M2wu+P7lzGaUOfZh4G3WHlfkvz9uErsQhRm2AFKC
lddx0+eQEP7pY1AmcGXES1UW1HFhcetiySgosyozMsIrMH0jx/l5lj4wrIru+ug9
pkenVfetIBvrT3nM1GTHZUk5M4dSFKhFREwMgw1uFNlcRYxYYuY2CPCfHJZCLoXx
XlGrPYHH9rDVG29DwiZ0wNSeGpcTED/CGxuK3XqGCEqubtpfghq4ijF7zSosa7l3
-----END RSA PRIVATE KEY-----
Certificate:
    Data:
        Version: 3 (0x2)
        Serial Number: 4096 (0x1000)
        Signature Algorithm: sha256WithRSAEncryption
        Issuer: C=AU, ST=Some-State, O=Internet Widgits Pty Ltd
        Validity
            Not Before: Aug 17 02:25:27 2020 GMT
            Not After : Aug 17 02:25:27 2021 GMT
        Subject: C=US, ST=New York, L=Syracuse, O=Example Inc, CN=example.com/emailAddress=email@example.com
        Subject Public Key Info:
            Public Key Algorithm: rsaEncryption
                RSA Public-Key: (2048 bit)
                Modulus:
                    00:b6:80:a4:e1:55:d3:f2:97:dc:e1:6b:3a:c5:e8:
                    82:e5:66:cf:27:7b:8a:6a:c6:b8:b0:3d:1a:87:f2:
                    94:28:f7:74:2e:c6:d9:b9:dd:e1:ae:53:8e:5d:69:
                    d0:8f:b2:d3:6a:d4:69:30:7c:1e:a1:3f:39:f5:36:
                    09:85:93:0d:e6:02:d4:85:a1:60:d7:c0:c1:03:a7:
                    b5:64:23:f0:9f:c3:99:93:9b:63:67:e7:ee:90:e8:
                    82:23:b9:8d:72:a6:29:3b:9c:3f:d9:c8:29:dc:3a:
                    58:f0:ed:20:8a:79:c0:4d:b7:f8:7a:4f:45:6b:2b:
                    82:70:ae:df:f1:08:88:68:51:2f:06:df:28:9f:a7:
                    cb:57:fe:5a:e2:8d:e2:37:cf:ef:2c:58:e5:4b:0f:
                    78:46:34:69:cd:7e:20:be:ef:25:8c:9f:d3:65:73:
                    62:08:c9:56:a5:66:31:c6:44:d4:74:e6:bc:0d:da:
                    a6:6b:57:8a:26:f4:1a:9e:19:d2:6e:65:20:03:2c:
                    7b:21:94:cd:d1:af:05:01:a2:e4:8e:de:f6:33:5d:
                    ba:13:d9:75:85:92:52:0e:34:4b:7a:9e:21:9b:29:
                    99:3b:cc:39:db:ff:6f:d9:82:6f:8e:26:9a:ac:b4:
                    6f:f6:7e:ce:16:c3:a5:78:54:54:47:a0:d7:08:7e:
                    1e:a1
                Exponent: 65537 (0x10001)
        X509v3 extensions:
            X509v3 Basic Constraints: 
                CA:FALSE
            Netscape Comment: 
                OpenSSL Generated Certificate
            X509v3 Subject Key Identifier: 
                08:D4:88:FA:96:87:57:93:20:8A:C4:5B:BA:35:76:7F:DA:44:02:0E
            X509v3 Authority Key Identifier: 
                keyid:67:87:3D:E2:6B:C4:B9:09:AD:A8:3F:25:52:40:73:5B:31:60:6D:93

    Signature Algorithm: sha256WithRSAEncryption
         86:7d:9b:79:e2:a4:7f:68:e4:73:c5:90:31:41:35:2b:67:c8:
         65:5e:26:20:3f:ca:f6:e3:04:b4:fa:9e:dc:bf:73:ae:12:7a:
         25:4f:2b:7d:8a:f5:b7:82:80:8b:92:e4:49:19:65:ed:b1:d1:
         b9:be:f4:05:62:c6:7c:33:bb:4a:60:f2:44:d3:e8:ea:a7:ea:
         a1:f0:f6:fb:32:9d:93:28:f5:da:62:31:62:fd:97:4d:63:97:
         38:64:b0:d0:f8:bb:56:86:73:ff:91:f9:73:b8:38:20:b0:be:
         90:b5:46:a4:f0:31:e1:2a:16:29:02:d6:7c:60:9a:b3:13:f5:
         03:8a:b9:bd:6b:10:4f:62:73:68:2c:0b:ae:1c:fe:4a:f4:bc:
         56:7f:57:20:b6:ce:67:5c:8a:24:7a:87:3b:09:c9:f7:c5:2f:
         49:fe:6d:95:3b:73:46:85:f8:5e:fb:25:ab:24:a4:1d:c6:ed:
         f7:9c:a7:84:4a:e9:d1:cc:5d:01:f8:2a:74:75:cd:46:99:2c:
         a2:f9:b8:85:e4:e5:80:86:da:75:2d:b6:a9:75:32:76:a3:17:
         88:73:46:52:dc:98:74:2a:ed:1b:9b:1e:4d:60:64:ba:b3:5f:
         7c:62:64:6f:a6:59:fa:63:a4:f2:32:6b:40:ae:55:e9:dd:e6:
         56:31:35:48:fc:98:08:e5:df:6f:44:d5:58:79:4e:9c:c3:92:
         c2:ed:26:df:20:58:00:26:3f:30:ee:b8:af:bf:7d:53:f2:5e:
         c1:5d:d4:3b:53:0c:53:0a:c0:4c:ac:e8:10:33:64:0d:23:ef:
         3d:47:c4:62:30:40:9b:64:14:9d:42:44:7b:93:60:46:e9:48:
         de:7f:80:e6:73:3d:a9:a4:b4:4c:51:ce:2e:60:6b:77:f9:9a:
         47:0d:13:76:47:2c:6a:9f:8c:22:26:b8:2f:d0:6d:15:5f:ff:
         ff:51:24:77:fc:f8:20:be:05:3e:fa:8f:e5:98:64:5c:47:88:
         dc:b3:24:1c:c6:07:d4:8c:a3:87:af:f5:f8:b4:76:ac:52:fd:
         05:48:a0:27:7f:c0:f4:7c:48:d7:e8:65:c3:34:30:43:ff:6f:
         2d:20:12:f1:87:d9:d8:51:52:9b:3e:dc:da:48:12:ed:16:a3:
         ee:8a:0c:23:b9:c2:02:55:39:59:40:06:24:f7:72:1b:f5:cf:
         2d:99:2d:13:04:88:76:d5:9d:58:f8:78:30:20:a9:f6:7b:72:
         ed:10:cd:fe:03:e3:f7:61:06:4a:6f:fb:63:d7:0c:c7:90:ce:
         d3:1d:ca:1a:3d:3d:f4:78:5d:a9:83:af:ef:cd:97:ea:ef:0c:
         01:7a:80:f6:6d:14:4e:9b
-----BEGIN CERTIFICATE-----
MIIEvjCCAqagAwIBAgICEAAwDQYJKoZIhvcNAQELBQAwRTELMAkGA1UEBhMCQVUx
EzARBgNVBAgMClNvbWUtU3RhdGUxITAfBgNVBAoMGEludGVybmV0IFdpZGdpdHMg
UHR5IEx0ZDAeFw0yMDA4MTcwMjI1MjdaFw0yMTA4MTcwMjI1MjdaMIGBMQswCQYD
VQQGEwJVUzERMA8GA1UECAwITmV3IFlvcmsxETAPBgNVBAcMCFN5cmFjdXNlMRQw
EgYDVQQKDAtFeGFtcGxlIEluYzEUMBIGA1UEAwwLZXhhbXBsZS5jb20xIDAeBgkq
hkiG9w0BCQEWEWVtYWlsQGV4YW1wbGUuY29tMIIBIjANBgkqhkiG9w0BAQEFAAOC
AQ8AMIIBCgKCAQEAtoCk4VXT8pfc4Ws6xeiC5WbPJ3uKasa4sD0ah/KUKPd0LsbZ
ud3hrlOOXWnQj7LTatRpMHweoT859TYJhZMN5gLUhaFg18DBA6e1ZCPwn8OZk5tj
Z+fukOiCI7mNcqYpO5w/2cgp3DpY8O0ginnATbf4ek9FayuCcK7f8QiIaFEvBt8o
n6fLV/5a4o3iN8/vLFjlSw94RjRpzX4gvu8ljJ/TZXNiCMlWpWYxxkTUdOa8Ddqm
a1eKJvQanhnSbmUgAyx7IZTN0a8FAaLkjt72M126E9l1hZJSDjRLep4hmymZO8w5
2/9v2YJvjiaarLRv9n7OFsOleFRUR6DXCH4eoQIDAQABo3sweTAJBgNVHRMEAjAA
MCwGCWCGSAGG+EIBDQQfFh1PcGVuU1NMIEdlbmVyYXRlZCBDZXJ0aWZpY2F0ZTAd
BgNVHQ4EFgQUCNSI+paHV5MgisRbujV2f9pEAg4wHwYDVR0jBBgwFoAUZ4c94mvE
uQmtqD8lUkBzWzFgbZMwDQYJKoZIhvcNAQELBQADggIBAIZ9m3nipH9o5HPFkDFB
NStnyGVeJiA/yvbjBLT6nty/c64SeiVPK32K9beCgIuS5EkZZe2x0bm+9AVixnwz
u0pg8kTT6Oqn6qHw9vsynZMo9dpiMWL9l01jlzhksND4u1aGc/+R+XO4OCCwvpC1
RqTwMeEqFikC1nxgmrMT9QOKub1rEE9ic2gsC64c/kr0vFZ/VyC2zmdciiR6hzsJ
yffFL0n+bZU7c0aF+F77JaskpB3G7fecp4RK6dHMXQH4KnR1zUaZLKL5uIXk5YCG
2nUttql1MnajF4hzRlLcmHQq7RubHk1gZLqzX3xiZG+mWfpjpPIya0CuVend5lYx
NUj8mAjl329E1Vh5TpzDksLtJt8gWAAmPzDuuK+/fVPyXsFd1DtTDFMKwEys6BAz
ZA0j7z1HxGIwQJtkFJ1CRHuTYEbpSN5/gOZzPamktExRzi5ga3f5mkcNE3ZHLGqf
jCImuC/QbRVf//9RJHf8+CC+BT76j+WYZFxHiNyzJBzGB9SMo4ev9fi0dqxS/QVI
oCd/wPR8SNfoZcM0MEP/by0gEvGH2dhRUps+3NpIEu0Wo+6KDCO5wgJVOVlABiT3
chv1zy2ZLRMEiHbVnVj4eDAgqfZ7cu0Qzf4D4/dhBkpv+2PXDMeQztMdyho9PfR4
XamDr+/Nl+rvDAF6gPZtFE6b
-----END CERTIFICATE-----
